; Function Attrs: mustprogress uwtable
define void @_ZNK6casadi8External16codegen_checkoutERNS_13CodeGeneratorE(ptr noundef nonnull align 8 dereferenceable(1520) %0, ptr noundef nonnull align 8 dereferenceable(3289) %1) unnamed_addr #3 align 2 {
  %3 = getelementptr inbounds nuw i8, ptr %0, i64 488
  %4 = load ptr, ptr %3, align 8, !tbaa !188
  %.not = icmp eq ptr %4, null
  br i1 %.not, label %10, label %5

5:                                                ; preds = %2
  %6 = tail call noundef nonnull align 8 dereferenceable(3289) ptr @_ZN6casadi13CodeGeneratorlsIPKcEERS0_T_(ptr noundef nonnull align 8 dereferenceable(3289) %1, ptr noundef nonnull @.str.71)
  %7 = getelementptr inbounds nuw i8, ptr %0, i64 24
  %8 = tail call noundef nonnull align 8 dereferenceable(3289) ptr @_ZN6casadi13CodeGeneratorlsERKNSt7__cxx1112basic_stringIcSt11char_traitsIcESaIcEEE(ptr noundef nonnull align 8 dereferenceable(3289) %6, ptr noundef nonnull align 8 dereferenceable(32) %7)
  %9 = tail call noundef nonnull align 8 dereferenceable(3289) ptr @_ZN6casadi13CodeGeneratorlsIPKcEERS0_T_(ptr noundef nonnull align 8 dereferenceable(3289) %8, ptr noundef nonnull @.str.72)
  br label %12

10:                                               ; preds = %2
  %11 = tail call noundef nonnull align 8 dereferenceable(3289) ptr @_ZN6casadi13CodeGeneratorlsIPKcEERS0_T_(ptr noundef nonnull align 8 dereferenceable(3289) %1, ptr noundef nonnull @.str.73)
  br label %12

12:                                               ; preds = %10, %5
  ret void
}